target datalayout = "e-m:e-p270:32:32-p271:32:32-p272:64:64-i64:64-i128:128-f80:128-n8:16:32:64-S128"
target triple = "x86_64-pc-linux-gnu"

%struct.strbuf = type { i64, i64, ptr }
%struct.rev_info = type { ptr, %struct.object_array, ptr, %struct.object_array, %struct.rev_cmdline_info, %struct.list_objects_filter_options, %struct.ref_exclusions, ptr, ptr, ptr, %struct.pathspec, i32, i32, i32, i32, i64, i32, i32, %struct.date_mode, i32, i32, i32, i32, ptr, i32, i32, ptr, ptr, i32, ptr, ptr, %struct.ident_split, ptr, i32, ptr, ptr, ptr, i32, i32, i32, ptr, %struct.grep_opt, ptr, i32, i32, i64, i64, i64, i32, i32, ptr, ptr, ptr, %struct.diff_options, %struct.diff_options, ptr, %struct.decoration, %struct.decoration, %struct.decoration, %struct.display_notes_opt, ptr, ptr, ptr, ptr, ptr, i32, ptr, i32, i32, i32, %struct.decoration, ptr, ptr, ptr, ptr, ptr, ptr, ptr, i32, ptr, i32, ptr, %struct.oidset }
%struct.object_array = type { i32, i32, ptr }
%struct.rev_cmdline_info = type { i32, i32, ptr }
%struct.list_objects_filter_options = type { %struct.strbuf, i32, i8, ptr, i64, i64, i32, i64, i64, ptr }
%struct.ref_exclusions = type { %struct.string_list, %struct.strvec, i8 }
%struct.string_list = type { ptr, i64, i64, i8, ptr }
%struct.strvec = type { ptr, i64, i64 }
%struct.pathspec = type { i32, i8, i32, i32, ptr }
%struct.date_mode = type { i32, i32, ptr }
%struct.ident_split = type { ptr, ptr, ptr, ptr, ptr, ptr, ptr, ptr }
%struct.grep_opt = type { ptr, ptr, ptr, ptr, ptr, ptr, i32, i32, i32, i32, i32, i32, i32, i32, i32, i32, i32, i32, i32, i32, i32, i32, i32, i32, i32, i32, i32, i32, i32, i32, i32, i32, [9 x [75 x i8]], i32, i32, i32, i32, i32, i32, i32, ptr, ptr, ptr }
%struct.diff_options = type { ptr, ptr, i32, i32, ptr, i32, ptr, i64, i64, ptr, ptr, ptr, ptr, %struct.diff_flags, i32, i32, i32, i32, i32, i32, i32, i32, i32, i32, i32, i32, i32, i32, i32, i32, i32, i32, i32, i32, i32, i32, ptr, i32, ptr, i32, i32, ptr, i64, i64, i32, i32, i32, i32, ptr, i32, i32, ptr, i32, i32, ptr, ptr, i32, [3 x i8], %struct.pathspec, ptr, ptr, ptr, ptr, ptr, ptr, ptr, ptr, i32, ptr, i32, i32, ptr, ptr, i32 }
%struct.diff_flags = type { i32, i32, i32, i32, i32, i32, i32, i32, i32, i32, i32, i32, i32, i32, i32, i32, i32, i32, i32, i32, i32, i32, i32, i32, i32, i32, i32, i32, i32, i32, i32, i32, i32, i32, i32 }
%struct.display_notes_opt = type { i32, %struct.string_list }
%struct.decoration = type { ptr, i32, i32, ptr }
%struct.oidset = type { %struct.kh_oid_set }
%struct.kh_oid_set = type { i32, i32, i32, i32, ptr, ptr, ptr }
%struct.object_id = type { [32 x i8], i32 }
%struct.object_array_entry = type { ptr, ptr, ptr, i32 }
%struct.object = type { i32, %struct.object_id }
%struct.commit_list = type { ptr, ptr }
%struct.commit = type { %struct.object, i64, ptr, ptr, i32 }

@.str.2 = private unnamed_addr constant [11 x i8] c"diff-lib.c\00", align 1
@.str.4 = private unnamed_addr constant [39 x i8] c"--merge-base does not work with ranges\00", align 1
@.str.5 = private unnamed_addr constant [32 x i8] c"unexpected revs->pending.nr: %d\00", align 1
@the_repository = external global ptr, align 8
@.str.6 = private unnamed_addr constant [5 x i8] c"HEAD\00", align 1
@.str.7 = private unnamed_addr constant [19 x i8] c"unable to get HEAD\00", align 1
@.str.8 = private unnamed_addr constant [20 x i8] c"no merge base found\00", align 1
@.str.9 = private unnamed_addr constant [27 x i8] c"multiple merge bases found\00", align 1

; Function Attrs: inlinehint nounwind uwtable
define internal void @oidcpy(ptr noundef %0, ptr noundef %1) #3 {
  %3 = alloca ptr, align 8
  %4 = alloca ptr, align 8
  store ptr %0, ptr %3, align 8, !tbaa !120
  store ptr %1, ptr %4, align 8, !tbaa !120
  %5 = load ptr, ptr %3, align 8, !tbaa !120
  %6 = getelementptr inbounds nuw %struct.object_id, ptr %5, i32 0, i32 0
  %7 = getelementptr inbounds [32 x i8], ptr %6, i64 0, i64 0
  %8 = load ptr, ptr %4, align 8, !tbaa !120
  %9 = getelementptr inbounds nuw %struct.object_id, ptr %8, i32 0, i32 0
  %10 = getelementptr inbounds [32 x i8], ptr %9, i64 0, i64 0
  call void @llvm.memcpy.p0.p0.i64(ptr align 4 %7, ptr align 4 %10, i64 32, i1 false)
  %11 = load ptr, ptr %4, align 8, !tbaa !120
  %12 = getelementptr inbounds nuw %struct.object_id, ptr %11, i32 0, i32 1
  %13 = load i32, ptr %12, align 4, !tbaa !128
  %14 = load ptr, ptr %3, align 8, !tbaa !120
  %15 = getelementptr inbounds nuw %struct.object_id, ptr %14, i32 0, i32 1
  store i32 %13, ptr %15, align 4, !tbaa !128
  ret void
}

; Function Attrs: nounwind uwtable
define dso_local void @diff_get_merge_base(ptr noundef %0, ptr noundef %1) #0 {
  %3 = alloca ptr, align 8
  %4 = alloca ptr, align 8
  %5 = alloca i32, align 4
  %6 = alloca [2 x ptr], align 16
  %7 = alloca ptr, align 8
  %8 = alloca ptr, align 8
  %9 = alloca %struct.object_id, align 4
  store ptr %0, ptr %3, align 8, !tbaa !4
  store ptr %1, ptr %4, align 8, !tbaa !120
  call void @llvm.lifetime.start.p0(i64 4, ptr %5) #11
  call void @llvm.lifetime.start.p0(i64 16, ptr %6) #11
  call void @llvm.memset.p0.i64(ptr align 16 %6, i8 0, i64 16, i1 false)
  call void @llvm.lifetime.start.p0(i64 8, ptr %7) #11
  store ptr null, ptr %7, align 8, !tbaa !145
  store i32 0, ptr %5, align 4, !tbaa !9
  br label %10

10:                                               ; preds = %34, %2
  %11 = load i32, ptr %5, align 4, !tbaa !9
  %12 = load ptr, ptr %3, align 8, !tbaa !4
  %13 = getelementptr inbounds nuw %struct.rev_info, ptr %12, i32 0, i32 1
  %14 = getelementptr inbounds nuw %struct.object_array, ptr %13, i32 0, i32 0
  %15 = load i32, ptr %14, align 8, !tbaa !146
  %16 = icmp ult i32 %11, %15
  br i1 %16, label %17, label %37

17:                                               ; preds = %10
  call void @llvm.lifetime.start.p0(i64 8, ptr %8) #11
  %18 = load ptr, ptr %3, align 8, !tbaa !4
  %19 = getelementptr inbounds nuw %struct.rev_info, ptr %18, i32 0, i32 1
  %20 = getelementptr inbounds nuw %struct.object_array, ptr %19, i32 0, i32 2
  %21 = load ptr, ptr %20, align 8, !tbaa !147
  %22 = load i32, ptr %5, align 4, !tbaa !9
  %23 = sext i32 %22 to i64
  %24 = getelementptr inbounds %struct.object_array_entry, ptr %21, i64 %23
  %25 = getelementptr inbounds nuw %struct.object_array_entry, ptr %24, i32 0, i32 0
  %26 = load ptr, ptr %25, align 8, !tbaa !148
  store ptr %26, ptr %8, align 8, !tbaa !151
  %27 = load ptr, ptr %8, align 8, !tbaa !151
  %28 = load i32, ptr %27, align 4
  %29 = lshr i32 %28, 4
  %30 = icmp ne i32 %29, 0
  br i1 %30, label %31, label %33

31:                                               ; preds = %17
  %32 = call ptr @_(ptr noundef @.str.4)
  call void (ptr, ...) @die(ptr noundef %32) #14
  unreachable

33:                                               ; preds = %17
  call void @llvm.lifetime.end.p0(i64 8, ptr %8) #11
  br label %34

34:                                               ; preds = %33
  %35 = load i32, ptr %5, align 4, !tbaa !9
  %36 = add nsw i32 %35, 1
  store i32 %36, ptr %5, align 4, !tbaa !9
  br label %10, !llvm.loop !152

37:                                               ; preds = %10
  %38 = load ptr, ptr %3, align 8, !tbaa !4
  %39 = getelementptr inbounds nuw %struct.rev_info, ptr %38, i32 0, i32 1
  %40 = getelementptr inbounds nuw %struct.object_array, ptr %39, i32 0, i32 0
  %41 = load i32, ptr %40, align 8, !tbaa !146
  %42 = icmp ult i32 %41, 1
  br i1 %42, label %49, label %43

43:                                               ; preds = %37
  %44 = load ptr, ptr %3, align 8, !tbaa !4
  %45 = getelementptr inbounds nuw %struct.rev_info, ptr %44, i32 0, i32 1
  %46 = getelementptr inbounds nuw %struct.object_array, ptr %45, i32 0, i32 0
  %47 = load i32, ptr %46, align 8, !tbaa !146
  %48 = icmp ugt i32 %47, 2
  br i1 %48, label %49, label %54

49:                                               ; preds = %43, %37
  %50 = load ptr, ptr %3, align 8, !tbaa !4
  %51 = getelementptr inbounds nuw %struct.rev_info, ptr %50, i32 0, i32 1
  %52 = getelementptr inbounds nuw %struct.object_array, ptr %51, i32 0, i32 0
  %53 = load i32, ptr %52, align 8, !tbaa !146
  call void (ptr, i32, ptr, ...) @BUG_fl(ptr noundef @.str.2, i32 noundef 586, ptr noundef @.str.5, i32 noundef %53) #14
  unreachable

54:                                               ; preds = %43
  store i32 0, ptr %5, align 4, !tbaa !9
  br label %55

55:                                               ; preds = %78, %54
  %56 = load i32, ptr %5, align 4, !tbaa !9
  %57 = load ptr, ptr %3, align 8, !tbaa !4
  %58 = getelementptr inbounds nuw %struct.rev_info, ptr %57, i32 0, i32 1
  %59 = getelementptr inbounds nuw %struct.object_array, ptr %58, i32 0, i32 0
  %60 = load i32, ptr %59, align 8, !tbaa !146
  %61 = icmp ult i32 %56, %60
  br i1 %61, label %62, label %81

62:                                               ; preds = %55
  %63 = load ptr, ptr @the_repository, align 8, !tbaa !127
  %64 = load ptr, ptr %3, align 8, !tbaa !4
  %65 = getelementptr inbounds nuw %struct.rev_info, ptr %64, i32 0, i32 1
  %66 = getelementptr inbounds nuw %struct.object_array, ptr %65, i32 0, i32 2
  %67 = load ptr, ptr %66, align 8, !tbaa !147
  %68 = load i32, ptr %5, align 4, !tbaa !9
  %69 = sext i32 %68 to i64
  %70 = getelementptr inbounds %struct.object_array_entry, ptr %67, i64 %69
  %71 = getelementptr inbounds nuw %struct.object_array_entry, ptr %70, i32 0, i32 0
  %72 = load ptr, ptr %71, align 8, !tbaa !148
  %73 = getelementptr inbounds nuw %struct.object, ptr %72, i32 0, i32 1
  %74 = call ptr @lookup_commit_reference(ptr noundef %63, ptr noundef %73)
  %75 = load i32, ptr %5, align 4, !tbaa !9
  %76 = sext i32 %75 to i64
  %77 = getelementptr inbounds [2 x ptr], ptr %6, i64 0, i64 %76
  store ptr %74, ptr %77, align 8, !tbaa !153
  br label %78

78:                                               ; preds = %62
  %79 = load i32, ptr %5, align 4, !tbaa !9
  %80 = add nsw i32 %79, 1
  store i32 %80, ptr %5, align 4, !tbaa !9
  br label %55, !llvm.loop !155

81:                                               ; preds = %55
  %82 = load ptr, ptr %3, align 8, !tbaa !4
  %83 = getelementptr inbounds nuw %struct.rev_info, ptr %82, i32 0, i32 1
  %84 = getelementptr inbounds nuw %struct.object_array, ptr %83, i32 0, i32 0
  %85 = load i32, ptr %84, align 8, !tbaa !146
  %86 = icmp eq i32 %85, 1
  br i1 %86, label %87, label %97

87:                                               ; preds = %81
  call void @llvm.lifetime.start.p0(i64 36, ptr %9) #11
  %88 = load ptr, ptr @the_repository, align 8, !tbaa !127
  %89 = call i32 @repo_get_oid(ptr noundef %88, ptr noundef @.str.6, ptr noundef %9)
  %90 = icmp ne i32 %89, 0
  br i1 %90, label %91, label %93

91:                                               ; preds = %87
  %92 = call ptr @_(ptr noundef @.str.7)
  call void (ptr, ...) @die(ptr noundef %92) #14
  unreachable

93:                                               ; preds = %87
  %94 = load ptr, ptr @the_repository, align 8, !tbaa !127
  %95 = call ptr @lookup_commit_reference(ptr noundef %94, ptr noundef %9)
  %96 = getelementptr inbounds [2 x ptr], ptr %6, i64 0, i64 1
  store ptr %95, ptr %96, align 8, !tbaa !153
  call void @llvm.lifetime.end.p0(i64 36, ptr %9) #11
  br label %97

97:                                               ; preds = %93, %81
  %98 = load ptr, ptr @the_repository, align 8, !tbaa !127
  %99 = getelementptr inbounds [2 x ptr], ptr %6, i64 0, i64 0
  %100 = load ptr, ptr %99, align 16, !tbaa !153
  %101 = getelementptr inbounds [2 x ptr], ptr %6, i64 0, i64 1
  %102 = load ptr, ptr %101, align 8, !tbaa !153
  %103 = call i32 @repo_get_merge_bases(ptr noundef %98, ptr noundef %100, ptr noundef %102, ptr noundef %7)
  %104 = icmp slt i32 %103, 0
  br i1 %104, label %105, label %107

105:                                              ; preds = %97
  %106 = call i32 @common_exit(ptr noundef @.str.2, i32 noundef 600, i32 noundef 128)
  call void @exit(i32 noundef %106) #15
  unreachable

107:                                              ; preds = %97
  %108 = load ptr, ptr %7, align 8, !tbaa !145
  %109 = icmp ne ptr %108, null
  br i1 %109, label %112, label %110

110:                                              ; preds = %107
  %111 = call ptr @_(ptr noundef @.str.8)
  call void (ptr, ...) @die(ptr noundef %111) #14
  unreachable

112:                                              ; preds = %107
  %113 = load ptr, ptr %7, align 8, !tbaa !145
  %114 = getelementptr inbounds nuw %struct.commit_list, ptr %113, i32 0, i32 1
  %115 = load ptr, ptr %114, align 8, !tbaa !156
  %116 = icmp ne ptr %115, null
  br i1 %116, label %117, label %119

117:                                              ; preds = %112
  %118 = call ptr @_(ptr noundef @.str.9)
  call void (ptr, ...) @die(ptr noundef %118) #14
  unreachable

119:                                              ; preds = %112
  %120 = load ptr, ptr %4, align 8, !tbaa !120
  %121 = load ptr, ptr %7, align 8, !tbaa !145
  %122 = getelementptr inbounds nuw %struct.commit_list, ptr %121, i32 0, i32 0
  %123 = load ptr, ptr %122, align 8, !tbaa !158
  %124 = getelementptr inbounds nuw %struct.commit, ptr %123, i32 0, i32 0
  %125 = getelementptr inbounds nuw %struct.object, ptr %124, i32 0, i32 1
  call void @oidcpy(ptr noundef %120, ptr noundef %125)
  %126 = load ptr, ptr %7, align 8, !tbaa !145
  call void @free_commit_list(ptr noundef %126)
  call void @llvm.lifetime.end.p0(i64 8, ptr %7) #11
  call void @llvm.lifetime.end.p0(i64 16, ptr %6) #11
  call void @llvm.lifetime.end.p0(i64 4, ptr %5) #11
  ret void
}