; Function Attrs: nounwind uwtable
define dso_local void @diff_get_merge_base(ptr noundef readonly captures(none) %0, ptr noundef writeonly captures(none) %1) local_unnamed_addr #0 {
  %3 = alloca [2 x ptr], align 16
  %4 = alloca ptr, align 8
  %5 = alloca %struct.object_id, align 4
  call void @llvm.lifetime.start.p0(i64 16, ptr nonnull %3) #15
  call void @llvm.memset.p0.i64(ptr noundef nonnull align 16 dereferenceable(16) %3, i8 0, i64 16, i1 false)
  call void @llvm.lifetime.start.p0(i64 8, ptr nonnull %4) #15
  store ptr null, ptr %4, align 8, !tbaa !125
  %6 = getelementptr inbounds nuw i8, ptr %0, i64 8
  %7 = load i32, ptr %6, align 8, !tbaa !126
  %.not31 = icmp eq i32 %7, 0
  br i1 %.not31, label %._crit_edge.thread, label %.lr.ph

.lr.ph:                                           ; preds = %2
  %8 = getelementptr inbounds nuw i8, ptr %0, i64 16
  %9 = load ptr, ptr %8, align 8, !tbaa !127
  %wide.trip.count = zext i32 %7 to i64
  br label %11

10:                                               ; preds = %11
  %indvars.iv.next = add nuw nsw i64 %indvars.iv, 1
  %exitcond.not = icmp eq i64 %indvars.iv.next, %wide.trip.count
  br i1 %exitcond.not, label %._crit_edge, label %11, !llvm.loop !128

11:                                               ; preds = %.lr.ph, %10
  %indvars.iv = phi i64 [ 0, %.lr.ph ], [ %indvars.iv.next, %10 ]
  %12 = getelementptr inbounds nuw %struct.object_array_entry, ptr %9, i64 %indvars.iv
  %13 = load ptr, ptr %12, align 8, !tbaa !129
  %14 = load i32, ptr %13, align 4
  %.not21 = icmp ult i32 %14, 16
  br i1 %.not21, label %10, label %15

15:                                               ; preds = %11
  %16 = tail call fastcc ptr @_(ptr noundef nonnull @.str.4)
  tail call void (ptr, ...) @die(ptr noundef %16) #19
  unreachable

._crit_edge:                                      ; preds = %10
  %17 = add i32 %7, -3
  %or.cond = icmp ult i32 %17, -2
  br i1 %or.cond, label %._crit_edge.thread, label %.lr.ph28

.lr.ph28:                                         ; preds = %._crit_edge
  %18 = getelementptr inbounds nuw i8, ptr %0, i64 16
  br label %19

._crit_edge.thread:                               ; preds = %2, %._crit_edge
  tail call void (ptr, i32, ptr, ...) @BUG_fl(ptr noundef nonnull @.str.2, i32 noundef 586, ptr noundef nonnull @.str.5, i32 noundef %7) #19
  unreachable

19:                                               ; preds = %.lr.ph28, %19
  %indvars.iv35 = phi i64 [ 0, %.lr.ph28 ], [ %indvars.iv.next36, %19 ]
  %20 = load ptr, ptr @the_repository, align 8, !tbaa !124
  %21 = load ptr, ptr %18, align 8, !tbaa !127
  %22 = getelementptr inbounds nuw %struct.object_array_entry, ptr %21, i64 %indvars.iv35
  %23 = load ptr, ptr %22, align 8, !tbaa !129
  %24 = getelementptr inbounds nuw i8, ptr %23, i64 4
  %25 = tail call ptr @lookup_commit_reference(ptr noundef %20, ptr noundef nonnull %24) #15
  %26 = getelementptr inbounds nuw [2 x ptr], ptr %3, i64 0, i64 %indvars.iv35
  store ptr %25, ptr %26, align 8, !tbaa !132
  %indvars.iv.next36 = add nuw nsw i64 %indvars.iv35, 1
  %27 = load i32, ptr %6, align 8, !tbaa !126
  %28 = zext i32 %27 to i64
  %29 = icmp samesign ult i64 %indvars.iv.next36, %28
  br i1 %29, label %19, label %._crit_edge29, !llvm.loop !134

._crit_edge29:                                    ; preds = %19
  %30 = icmp eq i32 %27, 1
  br i1 %30, label %31, label %._crit_edge29._crit_edge

._crit_edge29._crit_edge:                         ; preds = %._crit_edge29
  %.phi.trans.insert = getelementptr inbounds nuw i8, ptr %3, i64 8
  %.pre = load ptr, ptr %.phi.trans.insert, align 8, !tbaa !132
  br label %39

31:                                               ; preds = %._crit_edge29
  call void @llvm.lifetime.start.p0(i64 36, ptr nonnull %5) #15
  %32 = load ptr, ptr @the_repository, align 8, !tbaa !124
  %33 = call i32 @repo_get_oid(ptr noundef %32, ptr noundef nonnull @.str.6, ptr noundef nonnull %5) #15
  %.not = icmp eq i32 %33, 0
  br i1 %.not, label %36, label %34

34:                                               ; preds = %31
  %35 = call fastcc ptr @_(ptr noundef nonnull @.str.7)
  call void (ptr, ...) @die(ptr noundef %35) #19
  unreachable

36:                                               ; preds = %31
  %37 = load ptr, ptr @the_repository, align 8, !tbaa !124
  %38 = call ptr @lookup_commit_reference(ptr noundef %37, ptr noundef nonnull %5) #15
  call void @llvm.lifetime.end.p0(i64 36, ptr nonnull %5) #15
  br label %39

39:                                               ; preds = %._crit_edge29._crit_edge, %36
  %40 = phi ptr [ %.pre, %._crit_edge29._crit_edge ], [ %38, %36 ]
  %41 = load ptr, ptr @the_repository, align 8, !tbaa !124
  %42 = load ptr, ptr %3, align 16, !tbaa !132
  %43 = call i32 @repo_get_merge_bases(ptr noundef %41, ptr noundef %42, ptr noundef %40, ptr noundef nonnull %4) #15
  %44 = icmp slt i32 %43, 0
  br i1 %44, label %45, label %47

45:                                               ; preds = %39
  %46 = call i32 @common_exit(ptr noundef nonnull @.str.2, i32 noundef 600, i32 noundef 128) #15
  call void @exit(i32 noundef %46) #19
  unreachable

47:                                               ; preds = %39
  %48 = load ptr, ptr %4, align 8, !tbaa !125
  %.not19 = icmp eq ptr %48, null
  br i1 %.not19, label %49, label %51

49:                                               ; preds = %47
  %50 = call fastcc ptr @_(ptr noundef nonnull @.str.8)
  call void (ptr, ...) @die(ptr noundef %50) #19
  unreachable

51:                                               ; preds = %47
  %52 = getelementptr inbounds nuw i8, ptr %48, i64 8
  %53 = load ptr, ptr %52, align 8, !tbaa !135
  %.not20 = icmp eq ptr %53, null
  br i1 %.not20, label %56, label %54

54:                                               ; preds = %51
  %55 = call fastcc ptr @_(ptr noundef nonnull @.str.9)
  call void (ptr, ...) @die(ptr noundef %55) #19
  unreachable

56:                                               ; preds = %51
  %57 = load ptr, ptr %48, align 8, !tbaa !137
  %58 = getelementptr inbounds nuw i8, ptr %57, i64 4
  call void @llvm.memcpy.p0.p0.i64(ptr noundef nonnull align 4 dereferenceable(32) %1, ptr noundef nonnull readonly align 4 dereferenceable(32) %58, i64 32, i1 false)
  %59 = getelementptr inbounds nuw i8, ptr %57, i64 36
  %60 = load i32, ptr %59, align 4, !tbaa !98
  %61 = getelementptr inbounds nuw i8, ptr %1, i64 32
  store i32 %60, ptr %61, align 4, !tbaa !98
  call void @free_commit_list(ptr noundef nonnull %48) #15
  call void @llvm.lifetime.end.p0(i64 8, ptr nonnull %4) #15
  call void @llvm.lifetime.end.p0(i64 16, ptr nonnull %3) #15
  ret void
}